target datalayout = "e-m:e-p270:32:32-p271:32:32-p272:64:64-i64:64-i128:128-f80:128-n8:16:32:64-S128"
target triple = "x86_64-pc-linux-gnu"

%struct.HEVCLayerContext = type { [32 x %struct.HEVCFrame], ptr, ptr, i32, i32, ptr, ptr, ptr, ptr, ptr, ptr, ptr, ptr, ptr, ptr, ptr, ptr, [3 x ptr], [3 x ptr], ptr, ptr }
%struct.HEVCFrame = type { %union.anon, ptr, i32, ptr, ptr, ptr, i32, i32, ptr, ptr, i32, ptr, i32, i8 }
%union.anon = type { %struct.ProgressFrame }
%struct.ProgressFrame = type { ptr, ptr }

; Function Attrs: inlinehint nounwind uwtable
define internal void @av_refstruct_pool_uninit(ptr noundef %0) #6 {
  %2 = alloca ptr, align 8
  store ptr %0, ptr %2, align 8, !tbaa !231
  %3 = load ptr, ptr %2, align 8, !tbaa !231
  call void @av_refstruct_unref(ptr noundef %3)
  ret void
}

; Function Attrs: nounwind uwtable
define internal void @pic_arrays_free(ptr noundef %0) #0 {
  %2 = alloca ptr, align 8
  %3 = alloca i32, align 4
  store ptr %0, ptr %2, align 8, !tbaa !95
  %4 = load ptr, ptr %2, align 8, !tbaa !95
  %5 = getelementptr inbounds nuw %struct.HEVCLayerContext, ptr %4, i32 0, i32 5
  call void @av_freep(ptr noundef %5)
  %6 = load ptr, ptr %2, align 8, !tbaa !95
  %7 = getelementptr inbounds nuw %struct.HEVCLayerContext, ptr %6, i32 0, i32 6
  call void @av_freep(ptr noundef %7)
  %8 = load ptr, ptr %2, align 8, !tbaa !95
  %9 = getelementptr inbounds nuw %struct.HEVCLayerContext, ptr %8, i32 0, i32 7
  call void @av_freep(ptr noundef %9)
  %10 = load ptr, ptr %2, align 8, !tbaa !95
  %11 = getelementptr inbounds nuw %struct.HEVCLayerContext, ptr %10, i32 0, i32 8
  call void @av_freep(ptr noundef %11)
  %12 = load ptr, ptr %2, align 8, !tbaa !95
  %13 = getelementptr inbounds nuw %struct.HEVCLayerContext, ptr %12, i32 0, i32 10
  call void @av_freep(ptr noundef %13)
  %14 = load ptr, ptr %2, align 8, !tbaa !95
  %15 = getelementptr inbounds nuw %struct.HEVCLayerContext, ptr %14, i32 0, i32 9
  call void @av_freep(ptr noundef %15)
  %16 = load ptr, ptr %2, align 8, !tbaa !95
  %17 = getelementptr inbounds nuw %struct.HEVCLayerContext, ptr %16, i32 0, i32 11
  call void @av_freep(ptr noundef %17)
  %18 = load ptr, ptr %2, align 8, !tbaa !95
  %19 = getelementptr inbounds nuw %struct.HEVCLayerContext, ptr %18, i32 0, i32 14
  call void @av_freep(ptr noundef %19)
  %20 = load ptr, ptr %2, align 8, !tbaa !95
  %21 = getelementptr inbounds nuw %struct.HEVCLayerContext, ptr %20, i32 0, i32 13
  call void @av_freep(ptr noundef %21)
  %22 = load ptr, ptr %2, align 8, !tbaa !95
  %23 = getelementptr inbounds nuw %struct.HEVCLayerContext, ptr %22, i32 0, i32 12
  call void @av_freep(ptr noundef %23)
  %24 = load ptr, ptr %2, align 8, !tbaa !95
  %25 = getelementptr inbounds nuw %struct.HEVCLayerContext, ptr %24, i32 0, i32 15
  call void @av_freep(ptr noundef %25)
  %26 = load ptr, ptr %2, align 8, !tbaa !95
  %27 = getelementptr inbounds nuw %struct.HEVCLayerContext, ptr %26, i32 0, i32 16
  call void @av_freep(ptr noundef %27)
  call void @llvm.lifetime.start.p0(i64 4, ptr %3) #12
  store i32 0, ptr %3, align 4, !tbaa !70
  br label %28

28:                                               ; preds = %43, %1
  %29 = load i32, ptr %3, align 4, !tbaa !70
  %30 = icmp slt i32 %29, 3
  br i1 %30, label %32, label %31

31:                                               ; preds = %28
  call void @llvm.lifetime.end.p0(i64 4, ptr %3) #12
  br label %46

32:                                               ; preds = %28
  %33 = load ptr, ptr %2, align 8, !tbaa !95
  %34 = getelementptr inbounds nuw %struct.HEVCLayerContext, ptr %33, i32 0, i32 17
  %35 = load i32, ptr %3, align 4, !tbaa !70
  %36 = sext i32 %35 to i64
  %37 = getelementptr inbounds [3 x ptr], ptr %34, i64 0, i64 %36
  call void @av_freep(ptr noundef %37)
  %38 = load ptr, ptr %2, align 8, !tbaa !95
  %39 = getelementptr inbounds nuw %struct.HEVCLayerContext, ptr %38, i32 0, i32 18
  %40 = load i32, ptr %3, align 4, !tbaa !70
  %41 = sext i32 %40 to i64
  %42 = getelementptr inbounds [3 x ptr], ptr %39, i64 0, i64 %41
  call void @av_freep(ptr noundef %42)
  br label %43

43:                                               ; preds = %32
  %44 = load i32, ptr %3, align 4, !tbaa !70
  %45 = add nsw i32 %44, 1
  store i32 %45, ptr %3, align 4, !tbaa !70
  br label %28, !llvm.loop !199

46:                                               ; preds = %31
  %47 = load ptr, ptr %2, align 8, !tbaa !95
  %48 = getelementptr inbounds nuw %struct.HEVCLayerContext, ptr %47, i32 0, i32 19
  call void @av_refstruct_pool_uninit(ptr noundef %48)
  %49 = load ptr, ptr %2, align 8, !tbaa !95
  %50 = getelementptr inbounds nuw %struct.HEVCLayerContext, ptr %49, i32 0, i32 20
  call void @av_refstruct_pool_uninit(ptr noundef %50)
  ret void
}