; Function Attrs: nounwind uwtable
define internal fastcc void @pic_arrays_free(ptr noundef %0) unnamed_addr #0 {
  %2 = getelementptr inbounds nuw i8, ptr %0, i64 3352
  tail call void @av_freep(ptr noundef nonnull %2) #15
  %3 = getelementptr inbounds nuw i8, ptr %0, i64 3360
  tail call void @av_freep(ptr noundef nonnull %3) #15
  %4 = getelementptr inbounds nuw i8, ptr %0, i64 3368
  tail call void @av_freep(ptr noundef nonnull %4) #15
  %5 = getelementptr inbounds nuw i8, ptr %0, i64 3376
  tail call void @av_freep(ptr noundef nonnull %5) #15
  %6 = getelementptr inbounds nuw i8, ptr %0, i64 3392
  tail call void @av_freep(ptr noundef nonnull %6) #15
  %7 = getelementptr inbounds nuw i8, ptr %0, i64 3384
  tail call void @av_freep(ptr noundef nonnull %7) #15
  %8 = getelementptr inbounds nuw i8, ptr %0, i64 3400
  tail call void @av_freep(ptr noundef nonnull %8) #15
  %9 = getelementptr inbounds nuw i8, ptr %0, i64 3424
  tail call void @av_freep(ptr noundef nonnull %9) #15
  %10 = getelementptr inbounds nuw i8, ptr %0, i64 3416
  tail call void @av_freep(ptr noundef nonnull %10) #15
  %11 = getelementptr inbounds nuw i8, ptr %0, i64 3408
  tail call void @av_freep(ptr noundef nonnull %11) #15
  %12 = getelementptr inbounds nuw i8, ptr %0, i64 3432
  tail call void @av_freep(ptr noundef nonnull %12) #15
  %13 = getelementptr inbounds nuw i8, ptr %0, i64 3440
  tail call void @av_freep(ptr noundef nonnull %13) #15
  %14 = getelementptr inbounds nuw i8, ptr %0, i64 3448
  %15 = getelementptr inbounds nuw i8, ptr %0, i64 3472
  br label %19

16:                                               ; preds = %19
  %17 = getelementptr inbounds nuw i8, ptr %0, i64 3496
  tail call void @av_refstruct_unref(ptr noundef nonnull %17) #15
  %18 = getelementptr inbounds nuw i8, ptr %0, i64 3504
  tail call void @av_refstruct_unref(ptr noundef nonnull %18) #15
  ret void

19:                                               ; preds = %1, %19
  %indvars.iv = phi i64 [ 0, %1 ], [ %indvars.iv.next, %19 ]
  %20 = getelementptr inbounds nuw [3 x ptr], ptr %14, i64 0, i64 %indvars.iv
  tail call void @av_freep(ptr noundef nonnull %20) #15
  %21 = getelementptr inbounds nuw [3 x ptr], ptr %15, i64 0, i64 %indvars.iv
  tail call void @av_freep(ptr noundef nonnull %21) #15
  %indvars.iv.next = add nuw nsw i64 %indvars.iv, 1
  %exitcond.not = icmp eq i64 %indvars.iv.next, 3
  br i1 %exitcond.not, label %16, label %19, !llvm.loop !229
}